(dp1
S'project_paths'
p2
(lp3
V/home/xpdlabuser/Spyder_Projects/XPD+_architecture/xpd_architecture/userapi
p4
aV/home/xpdlabuser/Spyder_Projects/XPD+_architecture/xpd_architecture
p5
asS'name'
p6
VXPD+_architecture
p7
s.